target datalayout = "e-m:e-p270:32:32-p271:32:32-p272:64:64-i64:64-i128:128-f80:128-n8:16:32:64-S128"
target triple = "x86_64-pc-linux-gnu"

%struct.H5EA_iblock_t = type { %struct.H5C_cache_entry_t, ptr, ptr, ptr, ptr, i64, i64, ptr, i64, i64, i64 }
%struct.H5C_cache_entry_t = type { ptr, i64, i64, ptr, i8, ptr, i8, i8, i8, i8, i32, i8, i8, i8, i8, i8, i32, ptr, i32, i32, i32, i32, i32, i8, i8, ptr, ptr, ptr, ptr, ptr, ptr, i8, i32, i8, i64, ptr, i64, i64, i32, i8, i32, i32, i8, ptr, ptr, ptr }

@H5EA_init_g = external global i8, align 1
@H5_libterm_g = external global i8, align 1
@.str = private unnamed_addr constant [104 x i8] c"generated/home/dtcxzyw/WorkSpace/Projects/compilers/llvm-opt-benchmark/bench/hdf5/hdf5/src/H5EAiblock.c\00", align 1
@H5E_EARRAY_g = external global i64, align 8
@__func__.H5EA__iblock_dest = private unnamed_addr constant [18 x i8] c"H5EA__iblock_dest\00", align 1
@H5E_CANTDEC_g = external global i64, align 8
@.str.18 = private unnamed_addr constant [55 x i8] c"can't decrement reference count on shared array header\00", align 1
@H5_H5EA_iblock_t_reg_free_list = internal global { i8, [3 x i8], i32, i32, [4 x i8], ptr, i64, ptr } { i8 0, [3 x i8] zeroinitializer, i32 0, i32 0, [4 x i8] zeroinitializer, ptr @.str.19, i64 328, ptr null }, align 8
@H5_idx_blk_elmt_buf_blk_free_list = internal global { i8, [3 x i8], i32, i32, [4 x i8], i64, ptr, ptr } { i8 0, [3 x i8] zeroinitializer, i32 0, i32 0, [4 x i8] zeroinitializer, i64 0, ptr @.str.21, ptr null }, align 8
@H5_haddr_t_seq_free_list = internal global { { i8, [3 x i8], i32, i32, [4 x i8], i64, ptr, ptr }, i64 } { { i8, [3 x i8], i32, i32, [4 x i8], i64, ptr, ptr } { i8 0, [3 x i8] zeroinitializer, i32 0, i32 0, [4 x i8] zeroinitializer, i64 0, ptr @.str.23, ptr null }, i64 8 }, align 8

; Function Attrs: nounwind uwtable
define i32 @H5EA__iblock_dest(ptr noundef %0) #0 {
  %2 = alloca ptr, align 8
  %3 = alloca i32, align 4
  %4 = alloca i8, align 1
  store ptr %0, ptr %2, align 8, !tbaa !8
  call void @llvm.lifetime.start.p0(i64 4, ptr %3) #5
  store i32 0, ptr %3, align 4, !tbaa !51
  call void @llvm.lifetime.start.p0(i64 1, ptr %4) #5
  store i8 0, ptr %4, align 1, !tbaa !10
  %5 = load i8, ptr @H5EA_init_g, align 1, !tbaa !10, !range !12, !noundef !13
  %6 = trunc i8 %5 to i1
  br i1 %6, label %11, label %7

7:                                                ; preds = %1
  %8 = load i8, ptr @H5_libterm_g, align 1, !tbaa !10, !range !12, !noundef !13
  %9 = trunc i8 %8 to i1
  %10 = xor i1 %9, true
  br label %11

11:                                               ; preds = %7, %1
  %12 = phi i1 [ true, %1 ], [ %10, %7 ]
  %13 = xor i1 %12, true
  %14 = xor i1 %13, true
  %15 = zext i1 %14 to i32
  %16 = sext i32 %15 to i64
  %17 = call i64 @llvm.expect.i64(i64 %16, i64 1)
  %18 = icmp ne i64 %17, 0
  br i1 %18, label %19, label %96

19:                                               ; preds = %11
  %20 = load ptr, ptr %2, align 8, !tbaa !8
  %21 = getelementptr inbounds nuw %struct.H5EA_iblock_t, ptr %20, i32 0, i32 4
  %22 = load ptr, ptr %21, align 8, !tbaa !16
  %23 = icmp ne ptr %22, null
  br i1 %23, label %24, label %92

24:                                               ; preds = %19
  %25 = load ptr, ptr %2, align 8, !tbaa !8
  %26 = getelementptr inbounds nuw %struct.H5EA_iblock_t, ptr %25, i32 0, i32 1
  %27 = load ptr, ptr %26, align 8, !tbaa !48
  %28 = icmp ne ptr %27, null
  br i1 %28, label %29, label %36

29:                                               ; preds = %24
  %30 = load ptr, ptr %2, align 8, !tbaa !8
  %31 = getelementptr inbounds nuw %struct.H5EA_iblock_t, ptr %30, i32 0, i32 1
  %32 = load ptr, ptr %31, align 8, !tbaa !48
  %33 = call ptr @H5FL_blk_free(ptr noundef @H5_idx_blk_elmt_buf_blk_free_list, ptr noundef %32)
  %34 = load ptr, ptr %2, align 8, !tbaa !8
  %35 = getelementptr inbounds nuw %struct.H5EA_iblock_t, ptr %34, i32 0, i32 1
  store ptr %33, ptr %35, align 8, !tbaa !48
  br label %36

36:                                               ; preds = %29, %24
  %37 = load ptr, ptr %2, align 8, !tbaa !8
  %38 = getelementptr inbounds nuw %struct.H5EA_iblock_t, ptr %37, i32 0, i32 2
  %39 = load ptr, ptr %38, align 8, !tbaa !49
  %40 = icmp ne ptr %39, null
  br i1 %40, label %41, label %50

41:                                               ; preds = %36
  %42 = load ptr, ptr %2, align 8, !tbaa !8
  %43 = getelementptr inbounds nuw %struct.H5EA_iblock_t, ptr %42, i32 0, i32 2
  %44 = load ptr, ptr %43, align 8, !tbaa !49
  %45 = call ptr @H5FL_seq_free(ptr noundef @H5_haddr_t_seq_free_list, ptr noundef %44)
  %46 = load ptr, ptr %2, align 8, !tbaa !8
  %47 = getelementptr inbounds nuw %struct.H5EA_iblock_t, ptr %46, i32 0, i32 2
  store ptr %45, ptr %47, align 8, !tbaa !49
  %48 = load ptr, ptr %2, align 8, !tbaa !8
  %49 = getelementptr inbounds nuw %struct.H5EA_iblock_t, ptr %48, i32 0, i32 9
  store i64 0, ptr %49, align 8, !tbaa !40
  br label %50

50:                                               ; preds = %41, %36
  %51 = load ptr, ptr %2, align 8, !tbaa !8
  %52 = getelementptr inbounds nuw %struct.H5EA_iblock_t, ptr %51, i32 0, i32 3
  %53 = load ptr, ptr %52, align 8, !tbaa !50
  %54 = icmp ne ptr %53, null
  br i1 %54, label %55, label %64

55:                                               ; preds = %50
  %56 = load ptr, ptr %2, align 8, !tbaa !8
  %57 = getelementptr inbounds nuw %struct.H5EA_iblock_t, ptr %56, i32 0, i32 3
  %58 = load ptr, ptr %57, align 8, !tbaa !50
  %59 = call ptr @H5FL_seq_free(ptr noundef @H5_haddr_t_seq_free_list, ptr noundef %58)
  %60 = load ptr, ptr %2, align 8, !tbaa !8
  %61 = getelementptr inbounds nuw %struct.H5EA_iblock_t, ptr %60, i32 0, i32 3
  store ptr %59, ptr %61, align 8, !tbaa !50
  %62 = load ptr, ptr %2, align 8, !tbaa !8
  %63 = getelementptr inbounds nuw %struct.H5EA_iblock_t, ptr %62, i32 0, i32 10
  store i64 0, ptr %63, align 8, !tbaa !42
  br label %64

64:                                               ; preds = %55, %50
  %65 = load ptr, ptr %2, align 8, !tbaa !8
  %66 = getelementptr inbounds nuw %struct.H5EA_iblock_t, ptr %65, i32 0, i32 4
  %67 = load ptr, ptr %66, align 8, !tbaa !16
  %68 = call i32 @H5EA__hdr_decr(ptr noundef %67)
  %69 = icmp slt i32 %68, 0
  br i1 %69, label %70, label %89

70:                                               ; preds = %64
  br label %71

71:                                               ; preds = %70
  br label %72

72:                                               ; preds = %71
  br label %73

73:                                               ; preds = %72
  %74 = load i64, ptr @H5E_EARRAY_g, align 8, !tbaa !14
  %75 = load i64, ptr @H5E_CANTDEC_g, align 8, !tbaa !14
  %76 = call i32 (ptr, ptr, i32, i64, i64, ptr, ...) @H5E_printf_stack(ptr noundef @.str, ptr noundef @__func__.H5EA__iblock_dest, i32 noundef 477, i64 noundef %74, i64 noundef %75, ptr noundef @.str.18)
  br label %77

77:                                               ; preds = %73
  br label %78

78:                                               ; preds = %77
  store i8 1, ptr %4, align 1, !tbaa !10
  %79 = load i8, ptr %4, align 1, !tbaa !10, !range !12, !noundef !13
  %80 = trunc i8 %79 to i1
  %81 = zext i1 %80 to i8
  store i8 %81, ptr %4, align 1, !tbaa !10
  br label %82

82:                                               ; preds = %78
  br label %83

83:                                               ; preds = %82
  br label %84

84:                                               ; preds = %83
  store i32 -1, ptr %3, align 4, !tbaa !51
  br label %95

85:                                               ; No predecessors!
  br label %86

86:                                               ; preds = %85
  br label %87

87:                                               ; preds = %86
  br label %88

88:                                               ; preds = %87
  br label %89

89:                                               ; preds = %88, %64
  %90 = load ptr, ptr %2, align 8, !tbaa !8
  %91 = getelementptr inbounds nuw %struct.H5EA_iblock_t, ptr %90, i32 0, i32 4
  store ptr null, ptr %91, align 8, !tbaa !16
  br label %92

92:                                               ; preds = %89, %19
  %93 = load ptr, ptr %2, align 8, !tbaa !8
  %94 = call ptr @H5FL_reg_free(ptr noundef @H5_H5EA_iblock_t_reg_free_list, ptr noundef %93)
  store ptr %94, ptr %2, align 8, !tbaa !8
  br label %95

95:                                               ; preds = %92, %84
  br label %96

96:                                               ; preds = %95, %11
  %97 = load i32, ptr %3, align 4, !tbaa !51
  call void @llvm.lifetime.end.p0(i64 1, ptr %4) #5
  call void @llvm.lifetime.end.p0(i64 4, ptr %3) #5
  ret i32 %97
}