; Function Attrs: nounwind uwtable
define range(i32 -1, 1) i32 @H5EA__iblock_dest(ptr noundef %0) local_unnamed_addr #0 {
  %2 = load i8, ptr @H5EA_init_g, align 1, !tbaa !3, !range !7, !noundef !8
  %3 = trunc nuw i8 %2 to i1
  %4 = load i8, ptr @H5_libterm_g, align 1, !range !7
  %5 = trunc nuw i8 %4 to i1
  %6 = xor i1 %5, true
  %7 = select i1 %3, i1 true, i1 %6
  br i1 %7, label %8, label %39, !prof !9

8:                                                ; preds = %1
  %9 = getelementptr inbounds nuw i8, ptr %0, i64 272
  %10 = load ptr, ptr %9, align 8, !tbaa !12
  %.not = icmp eq ptr %10, null
  br i1 %.not, label %37, label %11

11:                                               ; preds = %8
  %12 = getelementptr inbounds nuw i8, ptr %0, i64 248
  %13 = load ptr, ptr %12, align 8, !tbaa !47
  %.not19 = icmp eq ptr %13, null
  br i1 %.not19, label %16, label %14

14:                                               ; preds = %11
  %15 = tail call ptr @H5FL_blk_free(ptr noundef nonnull @H5_idx_blk_elmt_buf_blk_free_list, ptr noundef nonnull %13) #3
  store ptr %15, ptr %12, align 8, !tbaa !47
  br label %16

16:                                               ; preds = %14, %11
  %17 = getelementptr inbounds nuw i8, ptr %0, i64 256
  %18 = load ptr, ptr %17, align 8, !tbaa !48
  %.not20 = icmp eq ptr %18, null
  br i1 %.not20, label %22, label %19

19:                                               ; preds = %16
  %20 = tail call ptr @H5FL_seq_free(ptr noundef nonnull @H5_haddr_t_seq_free_list, ptr noundef nonnull %18) #3
  store ptr %20, ptr %17, align 8, !tbaa !48
  %21 = getelementptr inbounds nuw i8, ptr %0, i64 312
  store i64 0, ptr %21, align 8, !tbaa !39
  br label %22

22:                                               ; preds = %19, %16
  %23 = getelementptr inbounds nuw i8, ptr %0, i64 264
  %24 = load ptr, ptr %23, align 8, !tbaa !49
  %.not21 = icmp eq ptr %24, null
  br i1 %.not21, label %28, label %25

25:                                               ; preds = %22
  %26 = tail call ptr @H5FL_seq_free(ptr noundef nonnull @H5_haddr_t_seq_free_list, ptr noundef nonnull %24) #3
  store ptr %26, ptr %23, align 8, !tbaa !49
  %27 = getelementptr inbounds nuw i8, ptr %0, i64 320
  store i64 0, ptr %27, align 8, !tbaa !41
  br label %28

28:                                               ; preds = %25, %22
  %29 = load ptr, ptr %9, align 8, !tbaa !12
  %30 = tail call i32 @H5EA__hdr_decr(ptr noundef %29) #3
  %31 = icmp slt i32 %30, 0
  br i1 %31, label %32, label %36

32:                                               ; preds = %28
  %33 = load i64, ptr @H5E_EARRAY_g, align 8, !tbaa !10
  %34 = load i64, ptr @H5E_CANTDEC_g, align 8, !tbaa !10
  %35 = tail call i32 (ptr, ptr, i32, i64, i64, ptr, ...) @H5E_printf_stack(ptr noundef nonnull @.str, ptr noundef nonnull @__func__.H5EA__iblock_dest, i32 noundef 477, i64 noundef %33, i64 noundef %34, ptr noundef nonnull @.str.18) #3
  br label %39

36:                                               ; preds = %28
  store ptr null, ptr %9, align 8, !tbaa !12
  br label %37

37:                                               ; preds = %36, %8
  %38 = tail call ptr @H5FL_reg_free(ptr noundef nonnull @H5_H5EA_iblock_t_reg_free_list, ptr noundef nonnull %0) #3
  br label %39

39:                                               ; preds = %32, %37, %1
  %.0 = phi i32 [ -1, %32 ], [ 0, %37 ], [ 0, %1 ]
  ret i32 %.0
}